target datalayout = "e-m:e-p270:32:32-p271:32:32-p272:64:64-i64:64-i128:128-f80:128-n8:16:32:64-S128"
target triple = "x86_64-pc-linux-gnu"

%struct.b2Vec2 = type { float, float }
%struct.b2JointArray = type { ptr, i32, i32 }
%struct.b2JointSimArray = type { ptr, i32, i32 }
%struct.b2JointId = type { i32, i16, i16 }
%struct.b2World = type { %struct.b2ArenaAllocator, %struct.b2BroadPhase, %struct.b2ConstraintGraph, %struct.b2IdPool, %struct.b2BodyArray, %struct.b2IdPool, %struct.b2SolverSetArray, %struct.b2IdPool, %struct.b2JointArray, %struct.b2IdPool, %struct.b2ContactArray, %struct.b2IdPool, %struct.b2IslandArray, %struct.b2IdPool, %struct.b2IdPool, %struct.b2ShapeArray, %struct.b2ChainShapeArray, %struct.b2SensorArray, %struct.b2TaskContextArray, %struct.b2SensorTaskContextArray, %struct.b2BodyMoveEventArray, %struct.b2SensorBeginTouchEventArray, %struct.b2ContactBeginTouchEventArray, [2 x %struct.b2SensorEndTouchEventArray], [2 x %struct.b2ContactEndTouchEventArray], i32, %struct.b2ContactHitEventArray, %struct.b2BitSet, %struct.b2BitSet, %struct.b2BitSet, i64, i32, %struct.b2Vec2, float, float, float, float, float, float, float, float, ptr, ptr, i16, %struct.b2Profile, ptr, ptr, ptr, ptr, i32, ptr, ptr, ptr, ptr, ptr, float, i32, i32, i16, i8, i8, i8, i8, i8, i8 }
%struct.b2ArenaAllocator = type { ptr, i32, i32, i32, i32, %struct.b2ArenaEntryArray }
%struct.b2ArenaEntryArray = type { ptr, i32, i32 }
%struct.b2BroadPhase = type { [3 x %struct.b2DynamicTree], i32, %struct.b2HashSet, %struct.b2IntArray, ptr, ptr, i32, %struct.b2AtomicInt, %struct.b2HashSet }
%struct.b2DynamicTree = type { ptr, i32, i32, i32, i32, i32, ptr, ptr, ptr, ptr, i32 }
%struct.b2IntArray = type { ptr, i32, i32 }
%struct.b2AtomicInt = type { i32 }
%struct.b2HashSet = type { ptr, i32, i32 }
%struct.b2ConstraintGraph = type { [12 x %struct.b2GraphColor] }
%struct.b2GraphColor = type { %struct.b2BitSet, %struct.b2ContactSimArray, %struct.b2JointSimArray, %union.anon }
%struct.b2ContactSimArray = type { ptr, i32, i32 }
%union.anon = type { ptr }
%struct.b2BodyArray = type { ptr, i32, i32 }
%struct.b2SolverSetArray = type { ptr, i32, i32 }
%struct.b2ContactArray = type { ptr, i32, i32 }
%struct.b2IslandArray = type { ptr, i32, i32 }
%struct.b2IdPool = type { %struct.b2IntArray, i32 }
%struct.b2ShapeArray = type { ptr, i32, i32 }
%struct.b2ChainShapeArray = type { ptr, i32, i32 }
%struct.b2SensorArray = type { ptr, i32, i32 }
%struct.b2TaskContextArray = type { ptr, i32, i32 }
%struct.b2SensorTaskContextArray = type { ptr, i32, i32 }
%struct.b2BodyMoveEventArray = type { ptr, i32, i32 }
%struct.b2SensorBeginTouchEventArray = type { ptr, i32, i32 }
%struct.b2ContactBeginTouchEventArray = type { ptr, i32, i32 }
%struct.b2SensorEndTouchEventArray = type { ptr, i32, i32 }
%struct.b2ContactEndTouchEventArray = type { ptr, i32, i32 }
%struct.b2ContactHitEventArray = type { ptr, i32, i32 }
%struct.b2BitSet = type { ptr, i32, i32 }
%struct.b2Profile = type { float, float, float, float, float, float, float, float, float, float, float, float, float, float, float, float, float, float, float, float, float, float }
%struct.b2Joint = type { ptr, i32, i32, i32, [2 x %struct.b2JointEdge], i32, i32, i32, i32, float, i32, i16, i8, i8 }
%struct.b2JointEdge = type { i32, i32, i32 }
%struct.b2SolverSet = type { %struct.b2BodySimArray, %struct.b2BodyStateArray, %struct.b2JointSimArray, %struct.b2ContactSimArray, %struct.b2IslandSimArray, i32 }
%struct.b2BodySimArray = type { ptr, i32, i32 }
%struct.b2BodyStateArray = type { ptr, i32, i32 }
%struct.b2IslandSimArray = type { ptr, i32, i32 }
%struct.b2JointSim = type { i32, i32, i32, i32, %struct.b2Vec2, %struct.b2Vec2, float, float, float, float, %union.anon.0 }
%union.anon.0 = type { %struct.b2PrismaticJoint }
%struct.b2PrismaticJoint = type { %struct.b2Vec2, %struct.b2Vec2, float, float, float, float, float, float, float, float, float, float, float, i32, i32, %struct.b2Vec2, %struct.b2Vec2, %struct.b2Vec2, %struct.b2Vec2, float, float, %struct.b2Softness, i8, i8, i8 }
%struct.b2Softness = type { float, float, float }

; Function Attrs: inlinehint nounwind uwtable
define internal ptr @b2SolverSetArray_Get(ptr noundef %0, i32 noundef %1) #5 {
  %3 = alloca ptr, align 8
  %4 = alloca i32, align 4
  store ptr %0, ptr %3, align 8, !tbaa !12
  store i32 %1, ptr %4, align 4, !tbaa !3
  %5 = load ptr, ptr %3, align 8, !tbaa !12
  %6 = getelementptr inbounds nuw %struct.b2SolverSetArray, ptr %5, i32 0, i32 0
  %7 = load ptr, ptr %6, align 8, !tbaa !73
  %8 = load i32, ptr %4, align 4, !tbaa !3
  %9 = sext i32 %8 to i64
  %10 = getelementptr inbounds %struct.b2SolverSet, ptr %7, i64 %9
  ret ptr %10
}

; Function Attrs: inlinehint nounwind uwtable
define internal ptr @b2JointSimArray_Get(ptr noundef %0, i32 noundef %1) #5 {
  %3 = alloca ptr, align 8
  %4 = alloca i32, align 4
  store ptr %0, ptr %3, align 8, !tbaa !12
  store i32 %1, ptr %4, align 4, !tbaa !3
  %5 = load ptr, ptr %3, align 8, !tbaa !12
  %6 = getelementptr inbounds nuw %struct.b2JointSimArray, ptr %5, i32 0, i32 0
  %7 = load ptr, ptr %6, align 8, !tbaa !14
  %8 = load i32, ptr %4, align 4, !tbaa !3
  %9 = sext i32 %8 to i64
  %10 = getelementptr inbounds %struct.b2JointSim, ptr %7, i64 %9
  ret ptr %10
}

; Function Attrs: inlinehint nounwind uwtable
define internal ptr @b2JointArray_Get(ptr noundef %0, i32 noundef %1) #5 {
  %3 = alloca ptr, align 8
  %4 = alloca i32, align 4
  store ptr %0, ptr %3, align 8, !tbaa !12
  store i32 %1, ptr %4, align 4, !tbaa !3
  %5 = load ptr, ptr %3, align 8, !tbaa !12
  %6 = getelementptr inbounds nuw %struct.b2JointArray, ptr %5, i32 0, i32 0
  %7 = load ptr, ptr %6, align 8, !tbaa !7
  %8 = load i32, ptr %4, align 4, !tbaa !3
  %9 = sext i32 %8 to i64
  %10 = getelementptr inbounds %struct.b2Joint, ptr %7, i64 %9
  ret ptr %10
}

; Function Attrs: nounwind uwtable
define hidden ptr @b2GetJointSim(ptr noundef %0, ptr noundef %1) #0 {
  %3 = alloca ptr, align 8
  %4 = alloca ptr, align 8
  %5 = alloca ptr, align 8
  %6 = alloca ptr, align 8
  %7 = alloca ptr, align 8
  store ptr %0, ptr %4, align 8, !tbaa !60
  store ptr %1, ptr %5, align 8, !tbaa !64
  %8 = load ptr, ptr %5, align 8, !tbaa !64
  %9 = getelementptr inbounds nuw %struct.b2Joint, ptr %8, i32 0, i32 1
  %10 = load i32, ptr %9, align 8, !tbaa !65
  %11 = icmp eq i32 %10, 2
  br i1 %11, label %12, label %28

12:                                               ; preds = %2
  call void @llvm.lifetime.start.p0(i64 8, ptr %6) #9
  %13 = load ptr, ptr %4, align 8, !tbaa !60
  %14 = getelementptr inbounds nuw %struct.b2World, ptr %13, i32 0, i32 2
  %15 = getelementptr inbounds nuw %struct.b2ConstraintGraph, ptr %14, i32 0, i32 0
  %16 = getelementptr inbounds [12 x %struct.b2GraphColor], ptr %15, i64 0, i64 0
  %17 = load ptr, ptr %5, align 8, !tbaa !64
  %18 = getelementptr inbounds nuw %struct.b2Joint, ptr %17, i32 0, i32 2
  %19 = load i32, ptr %18, align 4, !tbaa !67
  %20 = sext i32 %19 to i64
  %21 = getelementptr inbounds %struct.b2GraphColor, ptr %16, i64 %20
  store ptr %21, ptr %6, align 8, !tbaa !68
  %22 = load ptr, ptr %6, align 8, !tbaa !68
  %23 = getelementptr inbounds nuw %struct.b2GraphColor, ptr %22, i32 0, i32 2
  %24 = load ptr, ptr %5, align 8, !tbaa !64
  %25 = getelementptr inbounds nuw %struct.b2Joint, ptr %24, i32 0, i32 3
  %26 = load i32, ptr %25, align 8, !tbaa !70
  %27 = call ptr @b2JointSimArray_Get(ptr noundef %23, i32 noundef %26)
  store ptr %27, ptr %3, align 8
  call void @llvm.lifetime.end.p0(i64 8, ptr %6) #9
  br label %41

28:                                               ; preds = %2
  call void @llvm.lifetime.start.p0(i64 8, ptr %7) #9
  %29 = load ptr, ptr %4, align 8, !tbaa !60
  %30 = getelementptr inbounds nuw %struct.b2World, ptr %29, i32 0, i32 6
  %31 = load ptr, ptr %5, align 8, !tbaa !64
  %32 = getelementptr inbounds nuw %struct.b2Joint, ptr %31, i32 0, i32 1
  %33 = load i32, ptr %32, align 8, !tbaa !65
  %34 = call ptr @b2SolverSetArray_Get(ptr noundef %30, i32 noundef %33)
  store ptr %34, ptr %7, align 8, !tbaa !71
  %35 = load ptr, ptr %7, align 8, !tbaa !71
  %36 = getelementptr inbounds nuw %struct.b2SolverSet, ptr %35, i32 0, i32 2
  %37 = load ptr, ptr %5, align 8, !tbaa !64
  %38 = getelementptr inbounds nuw %struct.b2Joint, ptr %37, i32 0, i32 3
  %39 = load i32, ptr %38, align 8, !tbaa !70
  %40 = call ptr @b2JointSimArray_Get(ptr noundef %36, i32 noundef %39)
  store ptr %40, ptr %3, align 8
  call void @llvm.lifetime.end.p0(i64 8, ptr %7) #9
  br label %41

41:                                               ; preds = %28, %12
  %42 = load ptr, ptr %3, align 8
  ret ptr %42
}

; Function Attrs: nounwind uwtable
define hidden ptr @b2GetJointFullId(ptr noundef %0, i64 %1) #0 {
  %3 = alloca %struct.b2JointId, align 4
  %4 = alloca ptr, align 8
  %5 = alloca i32, align 4
  %6 = alloca ptr, align 8
  store i64 %1, ptr %3, align 4
  store ptr %0, ptr %4, align 8, !tbaa !60
  call void @llvm.lifetime.start.p0(i64 4, ptr %5) #9
  %7 = getelementptr inbounds nuw %struct.b2JointId, ptr %3, i32 0, i32 0
  %8 = load i32, ptr %7, align 4, !tbaa !62
  %9 = sub nsw i32 %8, 1
  store i32 %9, ptr %5, align 4, !tbaa !3
  call void @llvm.lifetime.start.p0(i64 8, ptr %6) #9
  %10 = load ptr, ptr %4, align 8, !tbaa !60
  %11 = getelementptr inbounds nuw %struct.b2World, ptr %10, i32 0, i32 8
  %12 = load i32, ptr %5, align 4, !tbaa !3
  %13 = call ptr @b2JointArray_Get(ptr noundef %11, i32 noundef %12)
  store ptr %13, ptr %6, align 8, !tbaa !64
  %14 = load ptr, ptr %6, align 8, !tbaa !64
  call void @llvm.lifetime.end.p0(i64 8, ptr %6) #9
  call void @llvm.lifetime.end.p0(i64 4, ptr %5) #9
  ret ptr %14
}

; Function Attrs: nounwind uwtable
define float @b2Joint_GetConstraintTorque(i64 %0) #0 {
  %2 = alloca float, align 4
  %3 = alloca %struct.b2JointId, align 4
  %4 = alloca ptr, align 8
  %5 = alloca ptr, align 8
  %6 = alloca ptr, align 8
  %7 = alloca i32, align 4
  store i64 %0, ptr %3, align 4
  call void @llvm.lifetime.start.p0(i64 8, ptr %4) #9
  %8 = getelementptr inbounds nuw %struct.b2JointId, ptr %3, i32 0, i32 1
  %9 = load i16, ptr %8, align 4, !tbaa !75
  %10 = zext i16 %9 to i32
  %11 = call ptr @b2GetWorld(i32 noundef %10)
  store ptr %11, ptr %4, align 8, !tbaa !60
  call void @llvm.lifetime.start.p0(i64 8, ptr %5) #9
  %12 = load ptr, ptr %4, align 8, !tbaa !60
  %13 = load i64, ptr %3, align 4
  %14 = call ptr @b2GetJointFullId(ptr noundef %12, i64 %13)
  store ptr %14, ptr %5, align 8, !tbaa !64
  call void @llvm.lifetime.start.p0(i64 8, ptr %6) #9
  %15 = load ptr, ptr %4, align 8, !tbaa !60
  %16 = load ptr, ptr %5, align 8, !tbaa !64
  %17 = call ptr @b2GetJointSim(ptr noundef %15, ptr noundef %16)
  store ptr %17, ptr %6, align 8, !tbaa !121
  %18 = load ptr, ptr %5, align 8, !tbaa !64
  %19 = getelementptr inbounds nuw %struct.b2Joint, ptr %18, i32 0, i32 10
  %20 = load i32, ptr %19, align 8, !tbaa !157
  switch i32 %20, label %47 [
    i32 0, label %21
    i32 1, label %22
    i32 2, label %26
    i32 3, label %30
    i32 4, label %31
    i32 5, label %35
    i32 6, label %39
    i32 7, label %43
  ]

21:                                               ; preds = %1
  store float 0.000000e+00, ptr %2, align 4
  store i32 1, ptr %7, align 4
  br label %48

22:                                               ; preds = %1
  %23 = load ptr, ptr %4, align 8, !tbaa !60
  %24 = load ptr, ptr %6, align 8, !tbaa !121
  %25 = call float @b2GetMotorJointTorque(ptr noundef %23, ptr noundef %24)
  store float %25, ptr %2, align 4
  store i32 1, ptr %7, align 4
  br label %48

26:                                               ; preds = %1
  %27 = load ptr, ptr %4, align 8, !tbaa !60
  %28 = load ptr, ptr %6, align 8, !tbaa !121
  %29 = call float @b2GetMouseJointTorque(ptr noundef %27, ptr noundef %28)
  store float %29, ptr %2, align 4
  store i32 1, ptr %7, align 4
  br label %48

30:                                               ; preds = %1
  store float 0.000000e+00, ptr %2, align 4
  store i32 1, ptr %7, align 4
  br label %48

31:                                               ; preds = %1
  %32 = load ptr, ptr %4, align 8, !tbaa !60
  %33 = load ptr, ptr %6, align 8, !tbaa !121
  %34 = call float @b2GetPrismaticJointTorque(ptr noundef %32, ptr noundef %33)
  store float %34, ptr %2, align 4
  store i32 1, ptr %7, align 4
  br label %48

35:                                               ; preds = %1
  %36 = load ptr, ptr %4, align 8, !tbaa !60
  %37 = load ptr, ptr %6, align 8, !tbaa !121
  %38 = call float @b2GetRevoluteJointTorque(ptr noundef %36, ptr noundef %37)
  store float %38, ptr %2, align 4
  store i32 1, ptr %7, align 4
  br label %48

39:                                               ; preds = %1
  %40 = load ptr, ptr %4, align 8, !tbaa !60
  %41 = load ptr, ptr %6, align 8, !tbaa !121
  %42 = call float @b2GetWeldJointTorque(ptr noundef %40, ptr noundef %41)
  store float %42, ptr %2, align 4
  store i32 1, ptr %7, align 4
  br label %48

43:                                               ; preds = %1
  %44 = load ptr, ptr %4, align 8, !tbaa !60
  %45 = load ptr, ptr %6, align 8, !tbaa !121
  %46 = call float @b2GetWheelJointTorque(ptr noundef %44, ptr noundef %45)
  store float %46, ptr %2, align 4
  store i32 1, ptr %7, align 4
  br label %48

47:                                               ; preds = %1
  store float 0.000000e+00, ptr %2, align 4
  store i32 1, ptr %7, align 4
  br label %48

48:                                               ; preds = %47, %43, %39, %35, %31, %30, %26, %22, %21
  call void @llvm.lifetime.end.p0(i64 8, ptr %6) #9
  call void @llvm.lifetime.end.p0(i64 8, ptr %5) #9
  call void @llvm.lifetime.end.p0(i64 8, ptr %4) #9
  %49 = load float, ptr %2, align 4
  ret float %49
}